; ModuleID = 'source-C-CXX/42/1189.cpp'
source_filename = "source-C-CXX/42/1189.cpp"
target datalayout = "e-m:e-p270:32:32-p271:32:32-p272:64:64-i64:64-f80:128-n8:16:32:64-S128"
target triple = "x86_64-pc-linux-gnu"

%"class.std::ios_base::Init" = type { i8 }
%"class.std::basic_istream" = type { i32 (...)**, i64, %"class.std::basic_ios" }
%"class.std::basic_ios" = type { %"class.std::ios_base", %"class.std::basic_ostream"*, i8, i8, %"class.std::basic_streambuf"*, %"class.std::ctype"*, %"class.std::num_put"*, %"class.std::num_get"* }
%"class.std::ios_base" = type { i32 (...)**, i64, i64, i32, i32, i32, %"struct.std::ios_base::_Callback_list"*, %"struct.std::ios_base::_Words", [8 x %"struct.std::ios_base::_Words"], i32, %"struct.std::ios_base::_Words"*, %"class.std::locale" }
%"struct.std::ios_base::_Callback_list" = type { %"struct.std::ios_base::_Callback_list"*, void (i32, %"class.std::ios_base"*, i32)*, i32, i32 }
%"struct.std::ios_base::_Words" = type { i8*, i64 }
%"class.std::locale" = type { %"class.std::locale::_Impl"* }
%"class.std::locale::_Impl" = type { i32, %"class.std::locale::facet"**, i64, %"class.std::locale::facet"**, i8** }
%"class.std::locale::facet" = type <{ i32 (...)**, i32, [4 x i8] }>
%"class.std::basic_ostream" = type { i32 (...)**, %"class.std::basic_ios" }
%"class.std::basic_streambuf" = type { i32 (...)**, i8*, i8*, i8*, i8*, i8*, i8*, %"class.std::locale" }
%"class.std::ctype" = type <{ %"class.std::locale::facet.base", [4 x i8], %struct.__locale_struct*, i8, [7 x i8], i32*, i32*, i16*, i8, [256 x i8], [256 x i8], i8, [6 x i8] }>
%"class.std::locale::facet.base" = type <{ i32 (...)**, i32 }>
%struct.__locale_struct = type { [13 x %struct.__locale_data*], i16*, i32*, i32*, [13 x i8*] }
%struct.__locale_data = type opaque
%"class.std::num_put" = type { %"class.std::locale::facet.base", [4 x i8] }
%"class.std::num_get" = type { %"class.std::locale::facet.base", [4 x i8] }

@_ZStL8__ioinit = internal global %"class.std::ios_base::Init" zeroinitializer, align 1
@__dso_handle = external hidden global i8
@_ZSt3cin = external global %"class.std::basic_istream", align 8
@_ZSt4cout = external global %"class.std::basic_ostream", align 8
@.str = private unnamed_addr constant [2 x i8] c" \00", align 1
@llvm.global_ctors = appending global [1 x { i32, void ()*, i8* }] [{ i32, void ()*, i8* } { i32 65535, void ()* @_GLOBAL__sub_I_1189.cpp, i8* null }]

declare void @_ZNSt8ios_base4InitC1Ev(%"class.std::ios_base::Init"* nonnull align 1 dereferenceable(1)) unnamed_addr #0

; Function Attrs: nounwind
declare void @_ZNSt8ios_base4InitD1Ev(%"class.std::ios_base::Init"* nonnull align 1 dereferenceable(1)) unnamed_addr #1

; Function Attrs: nofree nounwind
declare i32 @__cxa_atexit(void (i8*)*, i8*, i8*) local_unnamed_addr #2

; Function Attrs: mustprogress norecurse sspstrong uwtable
define dso_local i32 @main() local_unnamed_addr #3 {
  %1 = alloca i32, align 4
  %2 = bitcast i32* %1 to i8*
  call void @llvm.lifetime.start.p0i8(i64 4, i8* nonnull %2) #8
  %3 = call nonnull align 8 dereferenceable(16) %"class.std::basic_istream"* @_ZNSirsERi(%"class.std::basic_istream"* nonnull align 8 dereferenceable(16) @_ZSt3cin, i32* nonnull align 4 dereferenceable(4) %1)
  %4 = load i32, i32* %1, align 4, !tbaa !5
  %5 = icmp slt i32 %4, 6
  br i1 %5, label %86, label %6

6:                                                ; preds = %0, %81
  %7 = phi i32 [ %83, %81 ], [ 3, %0 ]
  %8 = sitofp i32 %7 to double
  %9 = call double @sqrt(double %8) #8
  %10 = fptosi double %9 to i32
  %11 = icmp slt i32 %10, 2
  br i1 %11, label %21, label %12

12:                                               ; preds = %6
  %13 = add nuw i32 %10, 1
  br label %14

14:                                               ; preds = %12, %18
  %15 = phi i32 [ %19, %18 ], [ 2, %12 ]
  %16 = urem i32 %7, %15
  %17 = icmp eq i32 %16, 0
  br i1 %17, label %21, label %18

18:                                               ; preds = %14
  %19 = add nuw i32 %15, 1
  %20 = icmp eq i32 %15, %10
  br i1 %20, label %21, label %14, !llvm.loop !9

21:                                               ; preds = %18, %14, %6
  %22 = phi i32 [ 2, %6 ], [ %15, %14 ], [ %13, %18 ]
  %23 = load i32, i32* %1, align 4, !tbaa !5
  %24 = sub nsw i32 %23, %7
  %25 = sitofp i32 %24 to double
  %26 = call double @sqrt(double %25) #8
  %27 = fptosi double %26 to i32
  %28 = load i32, i32* %1, align 4
  %29 = sub nsw i32 %28, %7
  %30 = icmp slt i32 %27, 2
  %31 = add i32 %27, 1
  br i1 %30, label %39, label %32

32:                                               ; preds = %21, %36
  %33 = phi i32 [ %37, %36 ], [ 2, %21 ]
  %34 = srem i32 %29, %33
  %35 = icmp eq i32 %34, 0
  br i1 %35, label %39, label %36

36:                                               ; preds = %32
  %37 = add nuw i32 %33, 1
  %38 = icmp eq i32 %33, %27
  br i1 %38, label %39, label %32, !llvm.loop !11

39:                                               ; preds = %36, %32, %21
  %40 = phi i32 [ 2, %21 ], [ %33, %32 ], [ %31, %36 ]
  %41 = add nsw i32 %10, 1
  %42 = icmp eq i32 %22, %41
  %43 = icmp eq i32 %40, %31
  %44 = select i1 %42, i1 %43, i1 false
  br i1 %44, label %45, label %81

45:                                               ; preds = %39
  %46 = call nonnull align 8 dereferenceable(8) %"class.std::basic_ostream"* @_ZNSolsEi(%"class.std::basic_ostream"* nonnull align 8 dereferenceable(8) @_ZSt4cout, i32 %7)
  %47 = call nonnull align 8 dereferenceable(8) %"class.std::basic_ostream"* @_ZSt16__ostream_insertIcSt11char_traitsIcEERSt13basic_ostreamIT_T0_ES6_PKS3_l(%"class.std::basic_ostream"* nonnull align 8 dereferenceable(8) %46, i8* nonnull getelementptr inbounds ([2 x i8], [2 x i8]* @.str, i64 0, i64 0), i64 1)
  %48 = load i32, i32* %1, align 4, !tbaa !5
  %49 = sub nsw i32 %48, %7
  %50 = call nonnull align 8 dereferenceable(8) %"class.std::basic_ostream"* @_ZNSolsEi(%"class.std::basic_ostream"* nonnull align 8 dereferenceable(8) %46, i32 %49)
  %51 = bitcast %"class.std::basic_ostream"* %50 to i8**
  %52 = load i8*, i8** %51, align 8, !tbaa !12
  %53 = getelementptr i8, i8* %52, i64 -24
  %54 = bitcast i8* %53 to i64*
  %55 = load i64, i64* %54, align 8
  %56 = bitcast %"class.std::basic_ostream"* %50 to i8*
  %57 = add nsw i64 %55, 240
  %58 = getelementptr inbounds i8, i8* %56, i64 %57
  %59 = bitcast i8* %58 to %"class.std::ctype"**
  %60 = load %"class.std::ctype"*, %"class.std::ctype"** %59, align 8, !tbaa !14
  %61 = icmp eq %"class.std::ctype"* %60, null
  br i1 %61, label %62, label %63

62:                                               ; preds = %45
  call void @_ZSt16__throw_bad_castv() #9
  unreachable

63:                                               ; preds = %45
  %64 = getelementptr inbounds %"class.std::ctype", %"class.std::ctype"* %60, i64 0, i32 8
  %65 = load i8, i8* %64, align 8, !tbaa !18
  %66 = icmp eq i8 %65, 0
  br i1 %66, label %70, label %67

67:                                               ; preds = %63
  %68 = getelementptr inbounds %"class.std::ctype", %"class.std::ctype"* %60, i64 0, i32 9, i64 10
  %69 = load i8, i8* %68, align 1, !tbaa !20
  br label %76

70:                                               ; preds = %63
  call void @_ZNKSt5ctypeIcE13_M_widen_initEv(%"class.std::ctype"* nonnull align 8 dereferenceable(570) %60)
  %71 = bitcast %"class.std::ctype"* %60 to i8 (%"class.std::ctype"*, i8)***
  %72 = load i8 (%"class.std::ctype"*, i8)**, i8 (%"class.std::ctype"*, i8)*** %71, align 8, !tbaa !12
  %73 = getelementptr inbounds i8 (%"class.std::ctype"*, i8)*, i8 (%"class.std::ctype"*, i8)** %72, i64 6
  %74 = load i8 (%"class.std::ctype"*, i8)*, i8 (%"class.std::ctype"*, i8)** %73, align 8
  %75 = call signext i8 %74(%"class.std::ctype"* nonnull align 8 dereferenceable(570) %60, i8 signext 10)
  br label %76

76:                                               ; preds = %67, %70
  %77 = phi i8 [ %69, %67 ], [ %75, %70 ]
  %78 = call nonnull align 8 dereferenceable(8) %"class.std::basic_ostream"* @_ZNSo3putEc(%"class.std::basic_ostream"* nonnull align 8 dereferenceable(8) %50, i8 signext %77)
  %79 = call nonnull align 8 dereferenceable(8) %"class.std::basic_ostream"* @_ZNSo5flushEv(%"class.std::basic_ostream"* nonnull align 8 dereferenceable(8) %78)
  %80 = load i32, i32* %1, align 4, !tbaa !5
  br label %81

81:                                               ; preds = %76, %39
  %82 = phi i32 [ %80, %76 ], [ %28, %39 ]
  %83 = add nuw nsw i32 %7, 2
  %84 = sdiv i32 %82, 2
  %85 = icmp sgt i32 %83, %84
  br i1 %85, label %86, label %6, !llvm.loop !21

86:                                               ; preds = %81, %0
  call void @llvm.lifetime.end.p0i8(i64 4, i8* nonnull %2) #8
  ret i32 0
}

; Function Attrs: argmemonly mustprogress nofree nosync nounwind willreturn
declare void @llvm.lifetime.start.p0i8(i64 immarg, i8* nocapture) #4

declare nonnull align 8 dereferenceable(16) %"class.std::basic_istream"* @_ZNSirsERi(%"class.std::basic_istream"* nonnull align 8 dereferenceable(16), i32* nonnull align 4 dereferenceable(4)) local_unnamed_addr #0

declare nonnull align 8 dereferenceable(8) %"class.std::basic_ostream"* @_ZNSolsEi(%"class.std::basic_ostream"* nonnull align 8 dereferenceable(8), i32) local_unnamed_addr #0

; Function Attrs: argmemonly mustprogress nofree nosync nounwind willreturn
declare void @llvm.lifetime.end.p0i8(i64 immarg, i8* nocapture) #4

; Function Attrs: mustprogress nofree nounwind willreturn
declare double @sqrt(double) local_unnamed_addr #5

declare nonnull align 8 dereferenceable(8) %"class.std::basic_ostream"* @_ZSt16__ostream_insertIcSt11char_traitsIcEERSt13basic_ostreamIT_T0_ES6_PKS3_l(%"class.std::basic_ostream"* nonnull align 8 dereferenceable(8), i8*, i64) local_unnamed_addr #0

declare nonnull align 8 dereferenceable(8) %"class.std::basic_ostream"* @_ZNSo3putEc(%"class.std::basic_ostream"* nonnull align 8 dereferenceable(8), i8 signext) local_unnamed_addr #0

declare nonnull align 8 dereferenceable(8) %"class.std::basic_ostream"* @_ZNSo5flushEv(%"class.std::basic_ostream"* nonnull align 8 dereferenceable(8)) local_unnamed_addr #0

; Function Attrs: noreturn
declare void @_ZSt16__throw_bad_castv() local_unnamed_addr #6

declare void @_ZNKSt5ctypeIcE13_M_widen_initEv(%"class.std::ctype"* nonnull align 8 dereferenceable(570)) local_unnamed_addr #0

; Function Attrs: sspstrong uwtable
define internal void @_GLOBAL__sub_I_1189.cpp() #7 section ".text.startup" {
  tail call void @_ZNSt8ios_base4InitC1Ev(%"class.std::ios_base::Init"* nonnull align 1 dereferenceable(1) @_ZStL8__ioinit)
  %1 = tail call i32 @__cxa_atexit(void (i8*)* bitcast (void (%"class.std::ios_base::Init"*)* @_ZNSt8ios_base4InitD1Ev to void (i8*)*), i8* getelementptr inbounds (%"class.std::ios_base::Init", %"class.std::ios_base::Init"* @_ZStL8__ioinit, i64 0, i32 0), i8* nonnull @__dso_handle) #8
  ret void
}


!llvm.module.flags = !{!0, !1, !2, !3}
!llvm.ident = !{!4}

!0 = !{i32 1, !"wchar_size", i32 4}
!1 = !{i32 7, !"PIC Level", i32 2}
!2 = !{i32 7, !"PIE Level", i32 2}
!3 = !{i32 7, !"uwtable", i32 1}
!4 = !{!"clang version 13.0.0"}
!5 = !{!6, !6, i64 0}
!6 = !{!"int", !7, i64 0}
!7 = !{!"omnipotent char", !8, i64 0}
!8 = !{!"Simple C++ TBAA"}
!9 = distinct !{!9, !10}
!10 = !{!"llvm.loop.mustprogress"}
!11 = distinct !{!11, !10}
!12 = !{!13, !13, i64 0}
!13 = !{!"vtable pointer", !8, i64 0}
!14 = !{!15, !16, i64 240}
!15 = !{!"_ZTSSt9basic_iosIcSt11char_traitsIcEE", !16, i64 216, !7, i64 224, !17, i64 225, !16, i64 232, !16, i64 240, !16, i64 248, !16, i64 256}
!16 = !{!"any pointer", !7, i64 0}
!17 = !{!"bool", !7, i64 0}
!18 = !{!19, !7, i64 56}
!19 = !{!"_ZTSSt5ctypeIcE", !16, i64 16, !17, i64 24, !16, i64 32, !16, i64 40, !16, i64 48, !7, i64 56, !7, i64 57, !7, i64 313, !7, i64 569}
!20 = !{!7, !7, i64 0}
!21 = distinct !{!21, !10}
